; Function Attrs: mustprogress uwtable
define void @_ZN3gmx30TrajectoryAnalysisRunnerCommon12initTopologyEv(ptr nocapture noundef nonnull readonly align 8 dereferenceable(8) %0) local_unnamed_addr #0 align 2 {
  %2 = load ptr, ptr %0, align 8
  %3 = getelementptr inbounds i8, ptr %2, i64 8
  %4 = load ptr, ptr %3, align 8
  %5 = tail call noundef zeroext i1 @_ZNK3gmx26TrajectoryAnalysisSettings7hasFlagEm(ptr noundef nonnull align 8 dereferenceable(8) %4, i64 noundef 1)
  %6 = load ptr, ptr %0, align 8
  tail call void @_ZN3gmx30TrajectoryAnalysisRunnerCommon4Impl12initTopologyEb(ptr noundef nonnull align 8 dereferenceable(280) %6, i1 noundef zeroext %5)
  ret void
}